; Function Attrs: nounwind uwtable
define internal noundef i32 @io_noclose(ptr noundef %0) #0 {
  %2 = getelementptr inbounds nuw i8, ptr %0, i64 16
  %3 = load ptr, ptr %2, align 8, !tbaa !62
  %4 = getelementptr inbounds nuw i8, ptr %3, i64 8
  store i32 0, ptr %4, align 8, !tbaa !69
  %5 = getelementptr inbounds nuw i8, ptr %3, i64 16
  store ptr %5, ptr %2, align 8, !tbaa !62
  %6 = getelementptr inbounds nuw i8, ptr %0, i64 32
  %7 = load ptr, ptr %6, align 8, !tbaa !29
  %8 = getelementptr inbounds nuw i8, ptr %7, i64 120
  %9 = load i64, ptr %8, align 8, !tbaa !54
  %10 = getelementptr inbounds nuw i8, ptr %7, i64 112
  %11 = load i64, ptr %10, align 8, !tbaa !66
  %.not.i = icmp ult i64 %9, %11
  br i1 %.not.i, label %lua_pushlstring.exit, label %12

12:                                               ; preds = %1
  %13 = getelementptr inbounds nuw i8, ptr %7, i64 148
  %14 = load i32, ptr %13, align 4, !tbaa !56
  %15 = mul i32 %14, 10
  %16 = zext i32 %15 to i64
  %17 = icmp eq i32 %15, 0
  %spec.store.select.i.i = select i1 %17, i64 9223372036854775806, i64 %16
  %18 = sub nuw i64 %9, %11
  %19 = getelementptr inbounds nuw i8, ptr %7, i64 136
  %20 = load i64, ptr %19, align 8, !tbaa !57
  %21 = add i64 %18, %20
  store i64 %21, ptr %19, align 8, !tbaa !57
  %22 = getelementptr inbounds nuw i8, ptr %7, i64 33
  br label %23

23:                                               ; preds = %23, %12
  %.0.i.i = phi i64 [ %spec.store.select.i.i, %12 ], [ %25, %23 ]
  %24 = tail call fastcc i64 @singlestep(ptr noundef %0)
  %25 = sub nsw i64 %.0.i.i, %24
  %26 = load i8, ptr %22, align 1, !tbaa !50
  %27 = icmp ne i8 %26, 0
  %28 = icmp sgt i64 %25, 0
  %or.cond.i.i = select i1 %27, i1 %28, i1 false
  br i1 %or.cond.i.i, label %23, label %29, !llvm.loop !67

29:                                               ; preds = %23
  br i1 %27, label %30, label %39

30:                                               ; preds = %29
  %31 = load i64, ptr %19, align 8, !tbaa !57
  %32 = icmp ult i64 %31, 1024
  br i1 %32, label %33, label %36

33:                                               ; preds = %30
  %34 = load i64, ptr %8, align 8, !tbaa !54
  %35 = add i64 %34, 1024
  br label %luaC_step.exit.i

36:                                               ; preds = %30
  %37 = add i64 %31, -1024
  store i64 %37, ptr %19, align 8, !tbaa !57
  %38 = load i64, ptr %8, align 8, !tbaa !54
  br label %luaC_step.exit.i

39:                                               ; preds = %29
  %40 = getelementptr inbounds nuw i8, ptr %7, i64 128
  %41 = load i64, ptr %40, align 8, !tbaa !68
  %42 = udiv i64 %41, 100
  %43 = getelementptr inbounds nuw i8, ptr %7, i64 144
  %44 = load i32, ptr %43, align 8, !tbaa !55
  %45 = sext i32 %44 to i64
  %46 = mul i64 %42, %45
  br label %luaC_step.exit.i

luaC_step.exit.i:                                 ; preds = %39, %36, %33
  %.sink.i.i = phi i64 [ %35, %33 ], [ %38, %36 ], [ %46, %39 ]
  store i64 %.sink.i.i, ptr %10, align 8, !tbaa !66
  %.pre = load ptr, ptr %2, align 8, !tbaa !62
  br label %lua_pushlstring.exit

lua_pushlstring.exit:                             ; preds = %1, %luaC_step.exit.i
  %47 = phi ptr [ %5, %1 ], [ %.pre, %luaC_step.exit.i ]
  %48 = tail call fastcc ptr @luaS_newlstr(ptr noundef nonnull %0, ptr noundef nonnull @.str.224, i64 noundef 26)
  store ptr %48, ptr %47, align 8, !tbaa !46
  %49 = getelementptr inbounds nuw i8, ptr %47, i64 8
  store i32 4, ptr %49, align 8, !tbaa !69
  %50 = load ptr, ptr %2, align 8, !tbaa !62
  %51 = getelementptr inbounds nuw i8, ptr %50, i64 16
  store ptr %51, ptr %2, align 8, !tbaa !62
  ret i32 2
}